target datalayout = "e-m:e-p270:32:32-p271:32:32-p272:64:64-i64:64-i128:128-f80:128-n8:16:32:64-S128"
target triple = "x86_64-pc-linux-gnu"

%struct.t_blocka = type { i32, ptr, i32, ptr, i32, i32 }
%struct.gmx_ana_indexmap_t = type { i32, ptr, ptr, %struct.t_blocka, ptr, %struct.t_blocka, i8 }

; Function Attrs: mustprogress uwtable
define void @_Z21gmx_ana_indexmap_initP18gmx_ana_indexmap_tP15gmx_ana_index_tPK10gmx_mtop_t9e_index_t(ptr noundef %0, ptr noundef %1, ptr noundef %2, i32 noundef %3) #0 {
  %5 = alloca ptr, align 8
  %6 = alloca ptr, align 8
  %7 = alloca ptr, align 8
  %8 = alloca i32, align 4
  %9 = alloca i32, align 4
  %10 = alloca i32, align 4
  %11 = alloca i32, align 4
  store ptr %0, ptr %5, align 8, !tbaa !476
  store ptr %1, ptr %6, align 8, !tbaa !232
  store ptr %2, ptr %7, align 8, !tbaa !228
  store i32 %3, ptr %8, align 4, !tbaa !347
  %12 = load i32, ptr %8, align 4, !tbaa !347
  %13 = load ptr, ptr %5, align 8, !tbaa !476
  %14 = getelementptr inbounds nuw %struct.gmx_ana_indexmap_t, ptr %13, i32 0, i32 0
  store i32 %12, ptr %14, align 8, !tbaa !478
  %15 = load ptr, ptr %5, align 8, !tbaa !476
  %16 = getelementptr inbounds nuw %struct.gmx_ana_indexmap_t, ptr %15, i32 0, i32 5
  %17 = load ptr, ptr %7, align 8, !tbaa !228
  %18 = load ptr, ptr %6, align 8, !tbaa !232
  %19 = load i32, ptr %8, align 4, !tbaa !347
  call void @_Z24gmx_ana_index_make_blockP8t_blockaPK10gmx_mtop_tP15gmx_ana_index_t9e_index_tb(ptr noundef %16, ptr noundef %17, ptr noundef %18, i32 noundef %19, i1 noundef zeroext false)
  %20 = load ptr, ptr %5, align 8, !tbaa !476
  %21 = load ptr, ptr %5, align 8, !tbaa !476
  %22 = getelementptr inbounds nuw %struct.gmx_ana_indexmap_t, ptr %21, i32 0, i32 5
  %23 = getelementptr inbounds nuw %struct.t_blocka, ptr %22, i32 0, i32 0
  %24 = load i32, ptr %23, align 8, !tbaa !489
  %25 = load ptr, ptr %5, align 8, !tbaa !476
  %26 = getelementptr inbounds nuw %struct.gmx_ana_indexmap_t, ptr %25, i32 0, i32 5
  %27 = getelementptr inbounds nuw %struct.t_blocka, ptr %26, i32 0, i32 2
  %28 = load i32, ptr %27, align 8, !tbaa !491
  call void @_Z24gmx_ana_indexmap_reserveP18gmx_ana_indexmap_tii(ptr noundef %20, i32 noundef %24, i32 noundef %28)
  call void @llvm.lifetime.start.p0(i64 4, ptr %9) #19
  store i32 -1, ptr %9, align 4, !tbaa !114
  call void @llvm.lifetime.start.p0(i64 4, ptr %10) #19
  store i32 0, ptr %10, align 4, !tbaa !114
  br label %29

29:                                               ; preds = %84, %4
  %30 = load i32, ptr %10, align 4, !tbaa !114
  %31 = load ptr, ptr %5, align 8, !tbaa !476
  %32 = getelementptr inbounds nuw %struct.gmx_ana_indexmap_t, ptr %31, i32 0, i32 5
  %33 = getelementptr inbounds nuw %struct.t_blocka, ptr %32, i32 0, i32 0
  %34 = load i32, ptr %33, align 8, !tbaa !489
  %35 = icmp slt i32 %30, %34
  br i1 %35, label %37, label %36

36:                                               ; preds = %29
  call void @llvm.lifetime.end.p0(i64 4, ptr %10) #19
  br label %87

37:                                               ; preds = %29
  call void @llvm.lifetime.start.p0(i64 4, ptr %11) #19
  %38 = load i32, ptr %8, align 4, !tbaa !347
  %39 = icmp eq i32 %38, 0
  br i1 %39, label %40, label %41

40:                                               ; preds = %37
  br label %57

41:                                               ; preds = %37
  %42 = load ptr, ptr %5, align 8, !tbaa !476
  %43 = getelementptr inbounds nuw %struct.gmx_ana_indexmap_t, ptr %42, i32 0, i32 5
  %44 = getelementptr inbounds nuw %struct.t_blocka, ptr %43, i32 0, i32 3
  %45 = load ptr, ptr %44, align 8, !tbaa !492
  %46 = load ptr, ptr %5, align 8, !tbaa !476
  %47 = getelementptr inbounds nuw %struct.gmx_ana_indexmap_t, ptr %46, i32 0, i32 5
  %48 = getelementptr inbounds nuw %struct.t_blocka, ptr %47, i32 0, i32 1
  %49 = load ptr, ptr %48, align 8, !tbaa !490
  %50 = load i32, ptr %10, align 4, !tbaa !114
  %51 = sext i32 %50 to i64
  %52 = getelementptr inbounds i32, ptr %49, i64 %51
  %53 = load i32, ptr %52, align 4, !tbaa !114
  %54 = sext i32 %53 to i64
  %55 = getelementptr inbounds i32, ptr %45, i64 %54
  %56 = load i32, ptr %55, align 4, !tbaa !114
  br label %57

57:                                               ; preds = %41, %40
  %58 = phi i32 [ 0, %40 ], [ %56, %41 ]
  store i32 %58, ptr %11, align 4, !tbaa !114
  %59 = load i32, ptr %11, align 4, !tbaa !114
  %60 = load ptr, ptr %7, align 8, !tbaa !228
  %61 = load i32, ptr %8, align 4, !tbaa !347
  %62 = call noundef zeroext i1 @_ZL16next_group_indexiPK10gmx_mtop_t9e_index_tPi(i32 noundef %59, ptr noundef %60, i32 noundef %61, ptr noundef %9)
  %63 = load i32, ptr %10, align 4, !tbaa !114
  %64 = load ptr, ptr %5, align 8, !tbaa !476
  %65 = getelementptr inbounds nuw %struct.gmx_ana_indexmap_t, ptr %64, i32 0, i32 1
  %66 = load ptr, ptr %65, align 8, !tbaa !480
  %67 = load i32, ptr %10, align 4, !tbaa !114
  %68 = sext i32 %67 to i64
  %69 = getelementptr inbounds i32, ptr %66, i64 %68
  store i32 %63, ptr %69, align 4, !tbaa !114
  %70 = load i32, ptr %9, align 4, !tbaa !114
  %71 = load ptr, ptr %5, align 8, !tbaa !476
  %72 = getelementptr inbounds nuw %struct.gmx_ana_indexmap_t, ptr %71, i32 0, i32 2
  %73 = load ptr, ptr %72, align 8, !tbaa !481
  %74 = load i32, ptr %10, align 4, !tbaa !114
  %75 = sext i32 %74 to i64
  %76 = getelementptr inbounds i32, ptr %73, i64 %75
  store i32 %70, ptr %76, align 4, !tbaa !114
  %77 = load i32, ptr %9, align 4, !tbaa !114
  %78 = load ptr, ptr %5, align 8, !tbaa !476
  %79 = getelementptr inbounds nuw %struct.gmx_ana_indexmap_t, ptr %78, i32 0, i32 4
  %80 = load ptr, ptr %79, align 8, !tbaa !488
  %81 = load i32, ptr %10, align 4, !tbaa !114
  %82 = sext i32 %81 to i64
  %83 = getelementptr inbounds i32, ptr %80, i64 %82
  store i32 %77, ptr %83, align 4, !tbaa !114
  call void @llvm.lifetime.end.p0(i64 4, ptr %11) #19
  br label %84

84:                                               ; preds = %57
  %85 = load i32, ptr %10, align 4, !tbaa !114
  %86 = add nsw i32 %85, 1
  store i32 %86, ptr %10, align 4, !tbaa !114
  br label %29, !llvm.loop !496

87:                                               ; preds = %36
  %88 = load ptr, ptr %5, align 8, !tbaa !476
  %89 = getelementptr inbounds nuw %struct.gmx_ana_indexmap_t, ptr %88, i32 0, i32 5
  %90 = getelementptr inbounds nuw %struct.t_blocka, ptr %89, i32 0, i32 0
  %91 = load i32, ptr %90, align 8, !tbaa !489
  %92 = load ptr, ptr %5, align 8, !tbaa !476
  %93 = getelementptr inbounds nuw %struct.gmx_ana_indexmap_t, ptr %92, i32 0, i32 3
  %94 = getelementptr inbounds nuw %struct.t_blocka, ptr %93, i32 0, i32 0
  store i32 %91, ptr %94, align 8, !tbaa !482
  %95 = load ptr, ptr %5, align 8, !tbaa !476
  %96 = getelementptr inbounds nuw %struct.gmx_ana_indexmap_t, ptr %95, i32 0, i32 5
  %97 = getelementptr inbounds nuw %struct.t_blocka, ptr %96, i32 0, i32 2
  %98 = load i32, ptr %97, align 8, !tbaa !491
  %99 = load ptr, ptr %5, align 8, !tbaa !476
  %100 = getelementptr inbounds nuw %struct.gmx_ana_indexmap_t, ptr %99, i32 0, i32 3
  %101 = getelementptr inbounds nuw %struct.t_blocka, ptr %100, i32 0, i32 2
  store i32 %98, ptr %101, align 8, !tbaa !485
  %102 = load ptr, ptr %5, align 8, !tbaa !476
  %103 = getelementptr inbounds nuw %struct.gmx_ana_indexmap_t, ptr %102, i32 0, i32 5
  %104 = getelementptr inbounds nuw %struct.t_blocka, ptr %103, i32 0, i32 3
  %105 = load ptr, ptr %104, align 8, !tbaa !492
  %106 = load ptr, ptr %5, align 8, !tbaa !476
  %107 = getelementptr inbounds nuw %struct.gmx_ana_indexmap_t, ptr %106, i32 0, i32 3
  %108 = getelementptr inbounds nuw %struct.t_blocka, ptr %107, i32 0, i32 3
  store ptr %105, ptr %108, align 8, !tbaa !486
  %109 = load ptr, ptr %5, align 8, !tbaa !476
  %110 = getelementptr inbounds nuw %struct.gmx_ana_indexmap_t, ptr %109, i32 0, i32 3
  %111 = getelementptr inbounds nuw %struct.t_blocka, ptr %110, i32 0, i32 1
  %112 = load ptr, ptr %111, align 8, !tbaa !483
  %113 = load ptr, ptr %5, align 8, !tbaa !476
  %114 = getelementptr inbounds nuw %struct.gmx_ana_indexmap_t, ptr %113, i32 0, i32 5
  %115 = getelementptr inbounds nuw %struct.t_blocka, ptr %114, i32 0, i32 1
  %116 = load ptr, ptr %115, align 8, !tbaa !490
  %117 = load ptr, ptr %5, align 8, !tbaa !476
  %118 = getelementptr inbounds nuw %struct.gmx_ana_indexmap_t, ptr %117, i32 0, i32 5
  %119 = getelementptr inbounds nuw %struct.t_blocka, ptr %118, i32 0, i32 0
  %120 = load i32, ptr %119, align 8, !tbaa !489
  %121 = add nsw i32 %120, 1
  %122 = sext i32 %121 to i64
  %123 = mul i64 %122, 4
  call void @llvm.memcpy.p0.p0.i64(ptr align 4 %112, ptr align 4 %116, i64 %123, i1 false)
  %124 = load ptr, ptr %5, align 8, !tbaa !476
  %125 = getelementptr inbounds nuw %struct.gmx_ana_indexmap_t, ptr %124, i32 0, i32 6
  store i8 1, ptr %125, align 8, !tbaa !495
  call void @llvm.lifetime.end.p0(i64 4, ptr %9) #19
  ret void
}