; Function Attrs: mustprogress uwtable
define void @_Z21gmx_ana_indexmap_initP18gmx_ana_indexmap_tP15gmx_ana_index_tPK10gmx_mtop_t9e_index_t(ptr noundef captures(none) initializes((0, 4)) %0, ptr noundef readonly captures(none) %1, ptr noundef %2, i32 noundef %3) local_unnamed_addr #0 {
  %5 = alloca i32, align 4
  store i32 %3, ptr %0, align 8, !tbaa !248
  %6 = getelementptr inbounds nuw i8, ptr %0, i64 72
  tail call void @_Z24gmx_ana_index_make_blockP8t_blockaPK10gmx_mtop_tP15gmx_ana_index_t9e_index_tb(ptr noundef nonnull %6, ptr noundef %2, ptr noundef %1, i32 noundef %3, i1 noundef zeroext false)
  %7 = load i32, ptr %6, align 8, !tbaa !259
  %8 = getelementptr inbounds nuw i8, ptr %0, i64 88
  %9 = load i32, ptr %8, align 8, !tbaa !254
  tail call void @_Z24gmx_ana_indexmap_reserveP18gmx_ana_indexmap_tii(ptr noundef nonnull %0, i32 noundef %7, i32 noundef %9)
  call void @llvm.lifetime.start.p0(i64 4, ptr nonnull %5) #28
  store i32 -1, ptr %5, align 4, !tbaa !36
  %10 = load i32, ptr %6, align 8, !tbaa !259
  %11 = icmp sgt i32 %10, 0
  br i1 %11, label %.lr.ph, label %._crit_edge

.lr.ph:                                           ; preds = %4
  %12 = icmp eq i32 %3, 0
  %13 = getelementptr inbounds nuw i8, ptr %0, i64 8
  %14 = getelementptr inbounds nuw i8, ptr %0, i64 16
  %15 = getelementptr inbounds nuw i8, ptr %0, i64 64
  br i1 %12, label %.lr.ph.split.us, label %.lr.ph.split

.lr.ph.split.us:                                  ; preds = %.lr.ph
  %16 = load ptr, ptr %13, align 8, !tbaa !260
  %17 = load ptr, ptr %14, align 8, !tbaa !261
  %18 = load ptr, ptr %15, align 8, !tbaa !262
  br label %.split35.us

.split35.us:                                      ; preds = %.split35.us, %.lr.ph.split.us
  %indvars.iv42 = phi i64 [ %indvars.iv.next43, %.split35.us ], [ 0, %.lr.ph.split.us ]
  %19 = getelementptr inbounds nuw i32, ptr %16, i64 %indvars.iv42
  %20 = trunc nuw nsw i64 %indvars.iv42 to i32
  store i32 %20, ptr %19, align 4, !tbaa !36
  %21 = getelementptr inbounds nuw i32, ptr %17, i64 %indvars.iv42
  store i32 0, ptr %21, align 4, !tbaa !36
  %22 = getelementptr inbounds nuw i32, ptr %18, i64 %indvars.iv42
  store i32 0, ptr %22, align 4, !tbaa !36
  %indvars.iv.next43 = add nuw nsw i64 %indvars.iv42, 1
  %23 = load i32, ptr %6, align 8, !tbaa !259
  %24 = sext i32 %23 to i64
  %25 = icmp slt i64 %indvars.iv.next43, %24
  br i1 %25, label %.split35.us, label %._crit_edge, !llvm.loop !263

.lr.ph.split:                                     ; preds = %.lr.ph
  %26 = getelementptr inbounds nuw i8, ptr %0, i64 80
  %27 = getelementptr inbounds nuw i8, ptr %0, i64 96
  %28 = load ptr, ptr %27, align 8, !tbaa !264
  %29 = load ptr, ptr %26, align 8, !tbaa !253
  br label %.split

._crit_edge:                                      ; preds = %.split, %.split35.us, %4
  %.lcssa = phi i32 [ %10, %4 ], [ %23, %.split35.us ], [ %58, %.split ]
  %30 = getelementptr inbounds nuw i8, ptr %0, i64 24
  store i32 %.lcssa, ptr %30, align 8, !tbaa !265
  %31 = load i32, ptr %8, align 8, !tbaa !254
  %32 = getelementptr inbounds nuw i8, ptr %0, i64 40
  store i32 %31, ptr %32, align 8, !tbaa !252
  %33 = getelementptr inbounds nuw i8, ptr %0, i64 96
  %34 = load ptr, ptr %33, align 8, !tbaa !264
  %35 = getelementptr inbounds nuw i8, ptr %0, i64 48
  store ptr %34, ptr %35, align 8, !tbaa !266
  %36 = getelementptr inbounds nuw i8, ptr %0, i64 32
  %37 = load ptr, ptr %36, align 8, !tbaa !251
  %38 = getelementptr inbounds nuw i8, ptr %0, i64 80
  %39 = load ptr, ptr %38, align 8, !tbaa !253
  %40 = add nsw i32 %.lcssa, 1
  %41 = sext i32 %40 to i64
  %42 = shl nsw i64 %41, 2
  tail call void @llvm.memcpy.p0.p0.i64(ptr align 4 %37, ptr align 4 %39, i64 %42, i1 false)
  %43 = getelementptr inbounds nuw i8, ptr %0, i64 112
  store i8 1, ptr %43, align 8, !tbaa !255
  call void @llvm.lifetime.end.p0(i64 4, ptr nonnull %5) #28
  ret void

.split:                                           ; preds = %.lr.ph.split, %.split
  %indvars.iv = phi i64 [ 0, %.lr.ph.split ], [ %indvars.iv.next, %.split ]
  %44 = getelementptr inbounds nuw i32, ptr %29, i64 %indvars.iv
  %45 = load i32, ptr %44, align 4, !tbaa !36
  %46 = sext i32 %45 to i64
  %47 = getelementptr inbounds i32, ptr %28, i64 %46
  %48 = load i32, ptr %47, align 4, !tbaa !36
  %49 = call fastcc noundef zeroext i1 @_ZL16next_group_indexiPK10gmx_mtop_t9e_index_tPi(i32 noundef %48, ptr noundef %2, i32 noundef %3, ptr noundef %5)
  %50 = load ptr, ptr %13, align 8, !tbaa !260
  %51 = getelementptr inbounds nuw i32, ptr %50, i64 %indvars.iv
  %52 = trunc nuw nsw i64 %indvars.iv to i32
  store i32 %52, ptr %51, align 4, !tbaa !36
  %53 = load i32, ptr %5, align 4, !tbaa !36
  %54 = load ptr, ptr %14, align 8, !tbaa !261
  %55 = getelementptr inbounds nuw i32, ptr %54, i64 %indvars.iv
  store i32 %53, ptr %55, align 4, !tbaa !36
  %56 = load ptr, ptr %15, align 8, !tbaa !262
  %57 = getelementptr inbounds nuw i32, ptr %56, i64 %indvars.iv
  store i32 %53, ptr %57, align 4, !tbaa !36
  %indvars.iv.next = add nuw nsw i64 %indvars.iv, 1
  %58 = load i32, ptr %6, align 8, !tbaa !259
  %59 = sext i32 %58 to i64
  %60 = icmp slt i64 %indvars.iv.next, %59
  br i1 %60, label %.split, label %._crit_edge, !llvm.loop !263
}